; Function Attrs: mustprogress uwtable
define hidden noundef i32 @_Z11StringToIntRKNSt7__cxx1112basic_stringIcSt11char_traitsIcESaIcEEE(ptr noundef nonnull align 8 dereferenceable(32) %0) local_unnamed_addr #6 personality ptr @__gxx_personality_v0 {
  %2 = alloca %"class.std::__cxx11::basic_istringstream", align 8
  %3 = alloca i32, align 4
  call void @llvm.lifetime.start.p0(i64 384, ptr nonnull %2) #25
  call void @_ZNSt7__cxx1119basic_istringstreamIcSt11char_traitsIcESaIcEEC1ERKNS_12basic_stringIcS2_S3_EESt13_Ios_Openmode(ptr noundef nonnull align 8 dereferenceable(120) %2, ptr noundef nonnull align 8 dereferenceable(32) %0, i32 noundef 8)
  call void @llvm.lifetime.start.p0(i64 4, ptr nonnull %3) #25
  %4 = invoke noundef nonnull align 8 dereferenceable(16) ptr @_ZNSirsERi(ptr noundef nonnull align 8 dereferenceable(16) %2, ptr noundef nonnull align 4 dereferenceable(4) %3)
          to label %5 unwind label %36

5:                                                ; preds = %1
  %6 = load ptr, ptr %4, align 8, !tbaa !49
  %7 = getelementptr i8, ptr %6, i64 -24
  %8 = load i64, ptr %7, align 8
  %9 = getelementptr inbounds i8, ptr %4, i64 %8
  %10 = getelementptr inbounds nuw i8, ptr %9, i64 32
  %11 = load i32, ptr %10, align 8, !tbaa !136
  %12 = load i32, ptr %3, align 4
  call void @llvm.lifetime.end.p0(i64 4, ptr nonnull %3) #25
  %13 = load ptr, ptr @_ZTTNSt7__cxx1119basic_istringstreamIcSt11char_traitsIcESaIcEEE, align 8
  store ptr %13, ptr %2, align 8, !tbaa !49
  %14 = load ptr, ptr getelementptr inbounds nuw (i8, ptr @_ZTTNSt7__cxx1119basic_istringstreamIcSt11char_traitsIcESaIcEEE, i64 24), align 8
  %15 = getelementptr i8, ptr %13, i64 -24
  %16 = load i64, ptr %15, align 8
  %17 = getelementptr inbounds i8, ptr %2, i64 %16
  store ptr %14, ptr %17, align 8, !tbaa !49
  %18 = getelementptr inbounds nuw i8, ptr %2, i64 16
  store ptr getelementptr inbounds nuw inrange(-16, 112) (i8, ptr @_ZTVNSt7__cxx1115basic_stringbufIcSt11char_traitsIcESaIcEEE, i64 16), ptr %18, align 8, !tbaa !49
  %19 = getelementptr inbounds nuw i8, ptr %2, i64 88
  %20 = load ptr, ptr %19, align 8, !tbaa !16
  %21 = getelementptr inbounds nuw i8, ptr %2, i64 104
  %22 = icmp eq ptr %20, %21
  br i1 %22, label %_ZNKSt7__cxx1112basic_stringIcSt11char_traitsIcESaIcEE11_M_is_localEv.exit.thread.i.i.i.i.i, label %_ZNKSt7__cxx1112basic_stringIcSt11char_traitsIcESaIcEE11_M_is_localEv.exit.i.i.i.i.i

_ZNKSt7__cxx1112basic_stringIcSt11char_traitsIcESaIcEE11_M_is_localEv.exit.thread.i.i.i.i.i: ; preds = %5
  %23 = getelementptr inbounds nuw i8, ptr %2, i64 96
  %24 = load i64, ptr %23, align 8, !tbaa !7
  %25 = icmp ult i64 %24, 16
  call void @llvm.assume(i1 %25)
  br label %_ZNSt7__cxx1119basic_istringstreamIcSt11char_traitsIcESaIcEED1Ev.exit

_ZNKSt7__cxx1112basic_stringIcSt11char_traitsIcESaIcEE11_M_is_localEv.exit.i.i.i.i.i: ; preds = %5
  call void @_ZdlPv(ptr noundef %20) #27
  br label %_ZNSt7__cxx1119basic_istringstreamIcSt11char_traitsIcESaIcEED1Ev.exit

_ZNSt7__cxx1119basic_istringstreamIcSt11char_traitsIcESaIcEED1Ev.exit: ; preds = %_ZNKSt7__cxx1112basic_stringIcSt11char_traitsIcESaIcEE11_M_is_localEv.exit.thread.i.i.i.i.i, %_ZNKSt7__cxx1112basic_stringIcSt11char_traitsIcESaIcEE11_M_is_localEv.exit.i.i.i.i.i
  %26 = and i32 %11, 5
  %.not.i = icmp eq i32 %26, 0
  %27 = select i1 %.not.i, i32 %12, i32 0
  store ptr getelementptr inbounds nuw inrange(-16, 112) (i8, ptr @_ZTVSt15basic_streambufIcSt11char_traitsIcEE, i64 16), ptr %18, align 8, !tbaa !49
  %28 = getelementptr inbounds nuw i8, ptr %2, i64 72
  call void @_ZNSt6localeD1Ev(ptr noundef nonnull align 8 dereferenceable(8) %28) #25
  %29 = load ptr, ptr getelementptr inbounds nuw (i8, ptr @_ZTTNSt7__cxx1119basic_istringstreamIcSt11char_traitsIcESaIcEEE, i64 8), align 8
  store ptr %29, ptr %2, align 8, !tbaa !49
  %30 = load ptr, ptr getelementptr inbounds nuw (i8, ptr @_ZTTNSt7__cxx1119basic_istringstreamIcSt11char_traitsIcESaIcEEE, i64 16), align 8
  %31 = getelementptr i8, ptr %29, i64 -24
  %32 = load i64, ptr %31, align 8
  %33 = getelementptr inbounds i8, ptr %2, i64 %32
  store ptr %30, ptr %33, align 8, !tbaa !49
  %34 = getelementptr inbounds nuw i8, ptr %2, i64 8
  store i64 0, ptr %34, align 8, !tbaa !143
  %35 = getelementptr inbounds nuw i8, ptr %2, i64 120
  call void @_ZNSt8ios_baseD2Ev(ptr noundef nonnull align 8 dereferenceable(264) %35) #25
  call void @llvm.lifetime.end.p0(i64 384, ptr nonnull %2) #25
  ret i32 %27

36:                                               ; preds = %1
  %37 = landingpad { ptr, i32 }
          cleanup
  call void @llvm.lifetime.end.p0(i64 4, ptr nonnull %3) #25
  call void @_ZNSt7__cxx1119basic_istringstreamIcSt11char_traitsIcESaIcEED1Ev(ptr noundef nonnull align 8 dereferenceable(120) %2) #25
  call void @llvm.lifetime.end.p0(i64 384, ptr nonnull %2) #25
  resume { ptr, i32 } %37
}